; ModuleID = '28/2051.c'
source_filename = "28/2051.c"
target datalayout = "e-m:e-p270:32:32-p271:32:32-p272:64:64-i64:64-f80:128-n8:16:32:64-S128"
target triple = "x86_64-pc-linux-gnu"

@.str = private unnamed_addr constant [4 x i8] c"%d,\00", align 1
@.str.1 = private unnamed_addr constant [3 x i8] c"%d\00", align 1

; Function Attrs: noinline nounwind uwtable
define dso_local i32 @main() #0 {
  %1 = alloca i32, align 4
  %2 = alloca i32, align 4
  %3 = alloca i32, align 4
  %4 = alloca i32, align 4
  %5 = alloca [5000 x i32], align 16
  %6 = alloca i32, align 4
  %7 = alloca i32, align 4
  %8 = alloca [5000 x i8], align 16
  store i32 0, i32* %1, align 4
  store i32 0, i32* %2, align 4
  store i32 0, i32* %3, align 4
  store i32 0, i32* %6, align 4
  store i32 -1, i32* %7, align 4
  %9 = getelementptr inbounds [5000 x i8], [5000 x i8]* %8, i64 0, i64 0
  %10 = call i32 (i8*, ...) bitcast (i32 (...)* @gets to i32 (i8*, ...)*)(i8* %9)
  %11 = getelementptr inbounds [5000 x i8], [5000 x i8]* %8, i64 0, i64 0
  %12 = call i64 @strlen(i8* %11) #3
  %13 = trunc i64 %12 to i32
  store i32 %13, i32* %4, align 4
  br label %14

14:                                               ; preds = %70, %0
  %15 = load i32, i32* %2, align 4
  %16 = load i32, i32* %4, align 4
  %17 = icmp slt i32 %15, %16
  br i1 %17, label %18, label %71

18:                                               ; preds = %14
  %19 = load i32, i32* %2, align 4
  %20 = sext i32 %19 to i64
  %21 = getelementptr inbounds [5000 x i8], [5000 x i8]* %8, i64 0, i64 %20
  %22 = load i8, i8* %21, align 1
  %23 = sext i8 %22 to i32
  %24 = icmp eq i32 %23, 32
  br i1 %24, label %33, label %25

25:                                               ; preds = %18
  %26 = load i32, i32* %3, align 4
  %27 = sext i32 %26 to i64
  %28 = getelementptr inbounds [5000 x i8], [5000 x i8]* %8, i64 0, i64 %27
  %29 = load i8, i8* %28, align 1
  %30 = sext i8 %29 to i64
  %31 = inttoptr i64 %30 to i8*
  %32 = icmp eq i8* %31, null
  br i1 %32, label %33, label %36

33:                                               ; preds = %25, %18
  %34 = load i32, i32* %2, align 4
  %35 = add nsw i32 %34, 1
  store i32 %35, i32* %2, align 4
  br label %70

36:                                               ; preds = %25
  %37 = load i32, i32* %2, align 4
  store i32 %37, i32* %3, align 4
  store i32 0, i32* %6, align 4
  br label %38

38:                                               ; preds = %36, %57
  %39 = load i32, i32* %3, align 4
  %40 = sext i32 %39 to i64
  %41 = getelementptr inbounds [5000 x i8], [5000 x i8]* %8, i64 0, i64 %40
  %42 = load i8, i8* %41, align 1
  %43 = sext i8 %42 to i32
  %44 = icmp eq i32 %43, 32
  br i1 %44, label %53, label %45

45:                                               ; preds = %38
  %46 = load i32, i32* %3, align 4
  %47 = sext i32 %46 to i64
  %48 = getelementptr inbounds [5000 x i8], [5000 x i8]* %8, i64 0, i64 %47
  %49 = load i8, i8* %48, align 1
  %50 = sext i8 %49 to i64
  %51 = inttoptr i64 %50 to i8*
  %52 = icmp eq i8* %51, null
  br i1 %52, label %53, label %54

53:                                               ; preds = %45, %38
  br label %60

54:                                               ; preds = %45
  %55 = load i32, i32* %6, align 4
  %56 = add nsw i32 %55, 1
  store i32 %56, i32* %6, align 4
  br label %57

57:                                               ; preds = %54
  %58 = load i32, i32* %3, align 4
  %59 = add nsw i32 %58, 1
  store i32 %59, i32* %3, align 4
  br label %38

60:                                               ; preds = %53
  %61 = load i32, i32* %7, align 4
  %62 = add nsw i32 %61, 1
  store i32 %62, i32* %7, align 4
  %63 = load i32, i32* %6, align 4
  %64 = load i32, i32* %7, align 4
  %65 = sext i32 %64 to i64
  %66 = getelementptr inbounds [5000 x i32], [5000 x i32]* %5, i64 0, i64 %65
  store i32 %63, i32* %66, align 4
  %67 = load i32, i32* %2, align 4
  %68 = load i32, i32* %6, align 4
  %69 = add nsw i32 %67, %68
  store i32 %69, i32* %2, align 4
  br label %70

70:                                               ; preds = %60, %33
  br label %14

71:                                               ; preds = %14
  store i32 0, i32* %2, align 4
  br label %72

72:                                               ; preds = %76, %71
  %73 = load i32, i32* %2, align 4
  %74 = load i32, i32* %7, align 4
  %75 = icmp slt i32 %73, %74
  br i1 %75, label %76, label %84

76:                                               ; preds = %72
  %77 = load i32, i32* %2, align 4
  %78 = sext i32 %77 to i64
  %79 = getelementptr inbounds [5000 x i32], [5000 x i32]* %5, i64 0, i64 %78
  %80 = load i32, i32* %79, align 4
  %81 = call i32 (i8*, ...) @printf(i8* getelementptr inbounds ([4 x i8], [4 x i8]* @.str, i64 0, i64 0), i32 %80)
  %82 = load i32, i32* %2, align 4
  %83 = add nsw i32 %82, 1
  store i32 %83, i32* %2, align 4
  br label %72

84:                                               ; preds = %72
  %85 = load i32, i32* %2, align 4
  %86 = sext i32 %85 to i64
  %87 = getelementptr inbounds [5000 x i32], [5000 x i32]* %5, i64 0, i64 %86
  %88 = load i32, i32* %87, align 4
  %89 = call i32 (i8*, ...) @printf(i8* getelementptr inbounds ([3 x i8], [3 x i8]* @.str.1, i64 0, i64 0), i32 %88)
  ret i32 0
}

declare dso_local i32 @gets(...) #1

; Function Attrs: nounwind readonly
declare dso_local i64 @strlen(i8*) #2

declare dso_local i32 @printf(i8*, ...) #1


!llvm.module.flags = !{!0}
!llvm.ident = !{!1}

!0 = !{i32 1, !"wchar_size", i32 4}
!1 = !{!"clang version 10.0.0-4ubuntu1 "}
